target datalayout = "e-m:e-p270:32:32-p271:32:32-p272:64:64-i64:64-i128:128-f80:128-n8:16:32:64-S128"
target triple = "x86_64-pc-linux-gnu"

%struct.pmix_tma = type { ptr, ptr, ptr, ptr, ptr, ptr, ptr, ptr }
%struct.pmix_value = type { i16, %union.anon }
%union.anon = type { %struct.pmix_envar_t }
%struct.pmix_envar_t = type { ptr, ptr, i8 }

; Function Attrs: inlinehint nounwind uwtable
define internal void @pmix_bfrops_base_tma_value_construct(ptr noundef %0, ptr noundef %1) #2 {
  %3 = alloca ptr, align 8
  %4 = alloca ptr, align 8
  store ptr %0, ptr %3, align 8, !tbaa !84
  store ptr %1, ptr %4, align 8, !tbaa !15
  %5 = load ptr, ptr %3, align 8, !tbaa !84
  call void @llvm.memset.p0.i64(ptr align 8 %5, i8 0, i64 32, i1 false)
  %6 = load ptr, ptr %3, align 8, !tbaa !84
  %7 = getelementptr inbounds nuw %struct.pmix_value, ptr %6, i32 0, i32 0
  store i16 0, ptr %7, align 8, !tbaa !86
  ret void
}

; Function Attrs: inlinehint nounwind uwtable
define internal ptr @pmix_tma_malloc(ptr noundef %0, i64 noundef %1) #2 {
  %3 = alloca ptr, align 8
  %4 = alloca ptr, align 8
  %5 = alloca i64, align 8
  store ptr %0, ptr %4, align 8, !tbaa !15
  store i64 %1, ptr %5, align 8, !tbaa !13
  %6 = load ptr, ptr %4, align 8, !tbaa !15
  %7 = icmp ne ptr null, %6
  br i1 %7, label %8, label %15

8:                                                ; preds = %2
  %9 = load ptr, ptr %4, align 8, !tbaa !15
  %10 = getelementptr inbounds nuw %struct.pmix_tma, ptr %9, i32 0, i32 0
  %11 = load ptr, ptr %10, align 8, !tbaa !88
  %12 = load ptr, ptr %4, align 8, !tbaa !15
  %13 = load i64, ptr %5, align 8, !tbaa !13
  %14 = call ptr %11(ptr noundef %12, i64 noundef %13)
  store ptr %14, ptr %3, align 8
  br label %18

15:                                               ; preds = %2
  %16 = load i64, ptr %5, align 8, !tbaa !13
  %17 = call noalias ptr @malloc(i64 noundef %16) #17
  store ptr %17, ptr %3, align 8
  br label %18

18:                                               ; preds = %15, %8
  %19 = load ptr, ptr %3, align 8
  ret ptr %19
}

; Function Attrs: inlinehint nounwind uwtable
define internal ptr @pmix_bfrops_base_tma_value_create(i64 noundef %0, ptr noundef %1) #2 {
  %3 = alloca ptr, align 8
  %4 = alloca i64, align 8
  %5 = alloca ptr, align 8
  %6 = alloca ptr, align 8
  %7 = alloca i64, align 8
  store i64 %0, ptr %4, align 8, !tbaa !13
  store ptr %1, ptr %5, align 8, !tbaa !15
  %8 = load i64, ptr %4, align 8, !tbaa !13
  %9 = icmp eq i64 0, %8
  br i1 %9, label %10, label %11

10:                                               ; preds = %2
  store ptr null, ptr %3, align 8
  br label %41

11:                                               ; preds = %2
  call void @llvm.lifetime.start.p0(i64 8, ptr %6) #15
  %12 = load ptr, ptr %5, align 8, !tbaa !15
  %13 = load i64, ptr %4, align 8, !tbaa !13
  %14 = mul i64 %13, 32
  %15 = call ptr @pmix_tma_malloc(ptr noundef %12, i64 noundef %14)
  store ptr %15, ptr %6, align 8, !tbaa !84
  %16 = load ptr, ptr %6, align 8, !tbaa !84
  %17 = icmp ne ptr null, %16
  %18 = xor i1 %17, true
  %19 = xor i1 %18, true
  %20 = zext i1 %19 to i32
  %21 = sext i32 %20 to i64
  %22 = call i64 @llvm.expect.i64(i64 %21, i64 1)
  %23 = icmp ne i64 %22, 0
  br i1 %23, label %24, label %39

24:                                               ; preds = %11
  call void @llvm.lifetime.start.p0(i64 8, ptr %7) #15
  store i64 0, ptr %7, align 8, !tbaa !13
  br label %25

25:                                               ; preds = %35, %24
  %26 = load i64, ptr %7, align 8, !tbaa !13
  %27 = load i64, ptr %4, align 8, !tbaa !13
  %28 = icmp ult i64 %26, %27
  br i1 %28, label %30, label %29

29:                                               ; preds = %25
  call void @llvm.lifetime.end.p0(i64 8, ptr %7) #15
  br label %38

30:                                               ; preds = %25
  %31 = load ptr, ptr %6, align 8, !tbaa !84
  %32 = load i64, ptr %7, align 8, !tbaa !13
  %33 = getelementptr inbounds nuw %struct.pmix_value, ptr %31, i64 %32
  %34 = load ptr, ptr %5, align 8, !tbaa !15
  call void @pmix_bfrops_base_tma_value_construct(ptr noundef %33, ptr noundef %34)
  br label %35

35:                                               ; preds = %30
  %36 = load i64, ptr %7, align 8, !tbaa !13
  %37 = add i64 %36, 1
  store i64 %37, ptr %7, align 8, !tbaa !13
  br label %25, !llvm.loop !312

38:                                               ; preds = %29
  br label %39

39:                                               ; preds = %38, %11
  %40 = load ptr, ptr %6, align 8, !tbaa !84
  store ptr %40, ptr %3, align 8
  call void @llvm.lifetime.end.p0(i64 8, ptr %6) #15
  br label %41

41:                                               ; preds = %39, %10
  %42 = load ptr, ptr %3, align 8
  ret ptr %42
}